; Function Attrs: mustprogress uwtable
define noundef zeroext i1 @_Z37grpc_gcp_rpc_protocol_versions_encodePK28grpc_gcp_RpcProtocolVersionsP9upb_ArenaP10grpc_slice(ptr noundef %0, ptr noundef %1, ptr noundef writeonly %2) local_unnamed_addr #0 personality ptr @__gxx_personality_v0 {
  %4 = alloca ptr, align 8
  %5 = alloca %"class.absl::lts_20240722::log_internal::LogMessage", align 8
  %6 = alloca i64, align 8
  %7 = alloca %struct.grpc_slice, align 8
  %8 = icmp eq ptr %0, null
  %9 = icmp eq ptr %1, null
  %or.cond = or i1 %8, %9
  %10 = icmp eq ptr %2, null
  %or.cond3 = or i1 %or.cond, %10
  br i1 %or.cond3, label %11, label %14

11:                                               ; preds = %3
  call void @llvm.lifetime.start.p0(i64 16, ptr nonnull %5) #11
  call void @_ZN4absl12lts_2024072212log_internal10LogMessageC1EPKciNS2_8ErrorTagE(ptr noundef nonnull align 8 dereferenceable(16) %5, ptr noundef nonnull @.str, i32 noundef 72) #12
  invoke void @_ZN4absl12lts_2024072212log_internal10LogMessage19CopyToEncodedBufferILNS2_10StringTypeE0EEEvSt17basic_string_viewIcSt11char_traitsIcEE(ptr noundef nonnull align 8 dereferenceable(16) %5, i64 69, ptr nonnull @.str.3)
          to label %_ZN4absl12lts_2024072212log_internal10LogMessagelsILi70EEERS2_RAT__Kc.exit unwind label %12

_ZN4absl12lts_2024072212log_internal10LogMessagelsILi70EEERS2_RAT__Kc.exit: ; preds = %11
  call void @_ZN4absl12lts_2024072212log_internal10LogMessageD1Ev(ptr noundef nonnull align 8 dereferenceable(16) %5) #13
  call void @llvm.lifetime.end.p0(i64 16, ptr nonnull %5) #11
  br label %21

12:                                               ; preds = %11
  %13 = landingpad { ptr, i32 }
          cleanup
  call void @_ZN4absl12lts_2024072212log_internal10LogMessageD1Ev(ptr noundef nonnull align 8 dereferenceable(16) %5) #13
  call void @llvm.lifetime.end.p0(i64 16, ptr nonnull %5) #11
  resume { ptr, i32 } %13

14:                                               ; preds = %3
  call void @llvm.lifetime.start.p0(i64 8, ptr nonnull %6) #11
  call void @llvm.lifetime.start.p0(i64 8, ptr nonnull %4) #11
  %15 = call i32 @upb_Encode(ptr noundef nonnull %0, ptr noundef nonnull @grpc__gcp__RpcProtocolVersions_msg_init, i32 noundef 0, ptr noundef nonnull %1, ptr noundef nonnull %4, ptr noundef nonnull %6)
  %16 = load ptr, ptr %4, align 8, !tbaa !24
  call void @llvm.lifetime.end.p0(i64 8, ptr nonnull %4) #11
  %17 = icmp ne ptr %16, null
  br i1 %17, label %18, label %20

18:                                               ; preds = %14
  call void @llvm.lifetime.start.p0(i64 32, ptr nonnull %7) #11
  %19 = load i64, ptr %6, align 8, !tbaa !25
  call void @grpc_slice_from_copied_buffer(ptr dead_on_unwind nonnull writable sret(%struct.grpc_slice) align 8 %7, ptr noundef nonnull %16, i64 noundef %19)
  call void @llvm.memcpy.p0.p0.i64(ptr noundef nonnull align 8 dereferenceable(32) %2, ptr noundef nonnull align 8 dereferenceable(32) %7, i64 32, i1 false), !tbaa.struct !27
  call void @llvm.lifetime.end.p0(i64 32, ptr nonnull %7) #11
  br label %20

20:                                               ; preds = %14, %18
  call void @llvm.lifetime.end.p0(i64 8, ptr nonnull %6) #11
  br label %21

21:                                               ; preds = %20, %_ZN4absl12lts_2024072212log_internal10LogMessagelsILi70EEERS2_RAT__Kc.exit
  %.0 = phi i1 [ false, %_ZN4absl12lts_2024072212log_internal10LogMessagelsILi70EEERS2_RAT__Kc.exit ], [ %17, %20 ]
  ret i1 %.0
}